target datalayout = "e-m:e-p270:32:32-p271:32:32-p272:64:64-i64:64-i128:128-f80:128-n8:16:32:64-S128"
target triple = "x86_64-pc-linux-gnu"

@.str.44 = private unnamed_addr constant [16 x i8] c"SQLite3 support\00", align 1
@.str.45 = private unnamed_addr constant [8 x i8] c"enabled\00", align 1
@.str.46 = private unnamed_addr constant [15 x i8] c"SQLite Library\00", align 1

; Function Attrs: nounwind uwtable
define hidden void @zm_info_sqlite3(ptr noundef %0) #0 {
  %2 = alloca ptr, align 8
  store ptr %0, ptr %2, align 8, !tbaa !202
  call void @php_info_print_table_start()
  call void (i32, ...) @php_info_print_table_row(i32 noundef 2, ptr noundef @.str.44, ptr noundef @.str.45)
  %3 = call ptr @sqlite3_libversion()
  call void (i32, ...) @php_info_print_table_row(i32 noundef 2, ptr noundef @.str.46, ptr noundef %3)
  call void @php_info_print_table_end()
  %4 = load ptr, ptr %2, align 8, !tbaa !202
  call void @display_ini_entries(ptr noundef %4)
  ret void
}