; Function Attrs: nounwind uwtable
define hidden void @zm_info_sqlite3(ptr noundef %0) #0 {
  tail call void @php_info_print_table_start() #17
  tail call void (i32, ...) @php_info_print_table_row(i32 noundef 2, ptr noundef nonnull @.str.44, ptr noundef nonnull @.str.45) #17
  %2 = tail call ptr @sqlite3_libversion() #17
  tail call void (i32, ...) @php_info_print_table_row(i32 noundef 2, ptr noundef nonnull @.str.46, ptr noundef %2) #17
  tail call void @php_info_print_table_end() #17
  tail call void @display_ini_entries(ptr noundef %0) #17
  ret void
}